; Function Attrs: mustprogress nofree norecurse nosync nounwind willreturn memory(argmem: read) uwtable
define noundef signext range(i8 0, 2) i8 @_ZNK6icu_7712UnifiedCache11_inProgressEPKNS_12SharedObjectE10UErrorCode(ptr noundef nonnull readonly align 8 captures(none) dereferenceable(56) %0, ptr noundef readnone %1, i32 noundef %2) local_unnamed_addr #12 align 2 {
  %4 = getelementptr inbounds nuw i8, ptr %0, i64 48
  %5 = load ptr, ptr %4, align 8, !tbaa !33
  %6 = icmp eq ptr %1, %5
  %7 = icmp eq i32 %2, 0
  %8 = and i1 %7, %6
  %9 = zext i1 %8 to i8
  ret i8 %9
}